target datalayout = "e-m:e-p270:32:32-p271:32:32-p272:64:64-i64:64-i128:128-f80:128-n8:16:32:64-S128"
target triple = "x86_64-pc-linux-gnu"

%struct._zval_struct = type { %union._zend_value, %union.anon, %union.anon.2 }
%union._zend_value = type { i64 }
%union.anon = type { i32 }
%union.anon.2 = type { i32 }
%struct._zend_array = type { %struct._zend_refcounted_h, %union.anon.4, i32, %union.anon.6, i32, i32, i32, i32, i64, ptr }
%struct._zend_refcounted_h = type { i32, %union.anon.3 }
%union.anon.3 = type { i32 }
%union.anon.4 = type { i32 }
%union.anon.6 = type { ptr }
%struct._Bucket = type { %struct._zval_struct, i64, ptr }
%struct._zend_module_entry = type { i16, i32, i8, i8, ptr, ptr, ptr, ptr, ptr, ptr, ptr, ptr, ptr, ptr, i64, ptr, ptr, ptr, ptr, i32, i8, ptr, i32, ptr }
%struct.anon.0 = type { i8, i8, %union.anon.1 }
%union.anon.1 = type { i16 }

@.str.117 = private unnamed_addr constant [4 x i8] c"%s\0A\00", align 1
@module_registry = external global %struct._zend_array, align 8

; Function Attrs: alwaysinline nounwind uwtable
define internal zeroext i8 @zval_get_type(ptr noundef %0) #17 {
  %2 = alloca ptr, align 8
  store ptr %0, ptr %2, align 8, !tbaa !9
  %3 = load ptr, ptr %2, align 8, !tbaa !9
  %4 = getelementptr inbounds nuw %struct._zval_struct, ptr %3, i32 0, i32 1
  %5 = getelementptr inbounds nuw %struct.anon.0, ptr %4, i32 0, i32 0
  %6 = load i8, ptr %5, align 8, !tbaa !11
  ret i8 %6
}

; Function Attrs: alwaysinline nounwind uwtable
define internal void @zend_hash_sort(ptr noundef %0, ptr noundef %1, i1 noundef zeroext %2) #17 {
  %4 = alloca ptr, align 8
  %5 = alloca ptr, align 8
  %6 = alloca i8, align 1
  store ptr %0, ptr %4, align 8, !tbaa !45
  store ptr %1, ptr %5, align 8, !tbaa !66
  %7 = zext i1 %2 to i8
  store i8 %7, ptr %6, align 1, !tbaa !70
  %8 = load ptr, ptr %4, align 8, !tbaa !45
  %9 = load ptr, ptr %5, align 8, !tbaa !66
  %10 = load i8, ptr %6, align 1, !tbaa !70, !range !71, !noundef !72
  %11 = trunc i8 %10 to i1
  call void @zend_hash_sort_ex(ptr noundef %8, ptr noundef @zend_sort, ptr noundef %9, i1 noundef zeroext %11)
  ret void
}

; Function Attrs: nounwind uwtable
define internal void @print_modules() #0 {
  %1 = alloca %struct._zend_array, align 8
  %2 = alloca ptr, align 8
  %3 = alloca ptr, align 8
  %4 = alloca ptr, align 8
  %5 = alloca ptr, align 8
  %6 = alloca ptr, align 8
  %7 = alloca i32, align 4
  call void @llvm.lifetime.start.p0(i64 56, ptr %1) #20
  call void @llvm.lifetime.start.p0(i64 8, ptr %2) #20
  call void @_zend_hash_init(ptr noundef %1, i32 noundef 64, ptr noundef null, i1 noundef zeroext true)
  call void @zend_hash_copy(ptr noundef %1, ptr noundef @module_registry, ptr noundef null)
  call void @zend_hash_sort(ptr noundef %1, ptr noundef @module_name_cmp, i1 noundef zeroext false)
  br label %8

8:                                                ; preds = %0
  call void @llvm.lifetime.start.p0(i64 8, ptr %3) #20
  store ptr %1, ptr %3, align 8, !tbaa !45
  call void @llvm.lifetime.start.p0(i64 8, ptr %4) #20
  %9 = load ptr, ptr %3, align 8, !tbaa !45
  %10 = getelementptr inbounds nuw %struct._zend_array, ptr %9, i32 0, i32 3
  %11 = load ptr, ptr %10, align 8, !tbaa !11
  %12 = getelementptr inbounds %struct._Bucket, ptr %11, i64 0
  store ptr %12, ptr %4, align 8, !tbaa !155
  call void @llvm.lifetime.start.p0(i64 8, ptr %5) #20
  %13 = load ptr, ptr %3, align 8, !tbaa !45
  %14 = getelementptr inbounds nuw %struct._zend_array, ptr %13, i32 0, i32 3
  %15 = load ptr, ptr %14, align 8, !tbaa !11
  %16 = load ptr, ptr %3, align 8, !tbaa !45
  %17 = getelementptr inbounds nuw %struct._zend_array, ptr %16, i32 0, i32 4
  %18 = load i32, ptr %17, align 8, !tbaa !157
  %19 = zext i32 %18 to i64
  %20 = getelementptr inbounds nuw %struct._Bucket, ptr %15, i64 %19
  store ptr %20, ptr %5, align 8, !tbaa !155
  %21 = load ptr, ptr %3, align 8, !tbaa !45
  %22 = getelementptr inbounds nuw %struct._zend_array, ptr %21, i32 0, i32 1
  %23 = load i32, ptr %22, align 8, !tbaa !11
  %24 = and i32 %23, 4
  %25 = icmp ne i32 %24, 0
  %26 = xor i1 %25, true
  call void @llvm.assume(i1 %26)
  br label %27

27:                                               ; preds = %56, %8
  %28 = load ptr, ptr %4, align 8, !tbaa !155
  %29 = load ptr, ptr %5, align 8, !tbaa !155
  %30 = icmp ne ptr %28, %29
  br i1 %30, label %31, label %59

31:                                               ; preds = %27
  call void @llvm.lifetime.start.p0(i64 8, ptr %6) #20
  %32 = load ptr, ptr %4, align 8, !tbaa !155
  %33 = getelementptr inbounds nuw %struct._Bucket, ptr %32, i32 0, i32 0
  store ptr %33, ptr %6, align 8, !tbaa !9
  %34 = load ptr, ptr %6, align 8, !tbaa !9
  %35 = call zeroext i8 @zval_get_type(ptr noundef %34)
  %36 = zext i8 %35 to i32
  %37 = icmp eq i32 %36, 0
  %38 = xor i1 %37, true
  %39 = xor i1 %38, true
  %40 = zext i1 %39 to i32
  %41 = sext i32 %40 to i64
  %42 = call i64 @llvm.expect.i64(i64 %41, i64 0)
  %43 = icmp ne i64 %42, 0
  br i1 %43, label %44, label %45

44:                                               ; preds = %31
  store i32 6, ptr %7, align 4
  br label %53

45:                                               ; preds = %31
  %46 = load ptr, ptr %6, align 8, !tbaa !9
  %47 = getelementptr inbounds nuw %struct._zval_struct, ptr %46, i32 0, i32 0
  %48 = load ptr, ptr %47, align 8, !tbaa !11
  store ptr %48, ptr %2, align 8, !tbaa !158
  %49 = load ptr, ptr %2, align 8, !tbaa !158
  %50 = getelementptr inbounds nuw %struct._zend_module_entry, ptr %49, i32 0, i32 6
  %51 = load ptr, ptr %50, align 8, !tbaa !159
  %52 = call i64 (ptr, ...) @php_printf(ptr noundef @.str.117, ptr noundef %51)
  store i32 0, ptr %7, align 4
  br label %53

53:                                               ; preds = %45, %44
  call void @llvm.lifetime.end.p0(i64 8, ptr %6) #20
  %54 = load i32, ptr %7, align 4
  switch i32 %54, label %62 [
    i32 0, label %55
    i32 6, label %56
  ]

55:                                               ; preds = %53
  br label %56

56:                                               ; preds = %55, %53
  %57 = load ptr, ptr %4, align 8, !tbaa !155
  %58 = getelementptr inbounds nuw %struct._Bucket, ptr %57, i32 1
  store ptr %58, ptr %4, align 8, !tbaa !155
  br label %27

59:                                               ; preds = %27
  call void @llvm.lifetime.end.p0(i64 8, ptr %5) #20
  call void @llvm.lifetime.end.p0(i64 8, ptr %4) #20
  call void @llvm.lifetime.end.p0(i64 8, ptr %3) #20
  br label %60

60:                                               ; preds = %59
  br label %61

61:                                               ; preds = %60
  call void @zend_hash_destroy(ptr noundef %1)
  call void @llvm.lifetime.end.p0(i64 8, ptr %2) #20
  call void @llvm.lifetime.end.p0(i64 56, ptr %1) #20
  ret void

62:                                               ; preds = %53
  unreachable
}