; Function Attrs: nounwind uwtable
define internal fastcc void @print_modules() unnamed_addr #0 {
  %1 = alloca %struct._zend_array, align 8
  call void @llvm.lifetime.start.p0(i64 56, ptr nonnull %1) #29
  call void @_zend_hash_init(ptr noundef nonnull %1, i32 noundef 64, ptr noundef null, i1 noundef zeroext true) #29
  call void @zend_hash_copy(ptr noundef nonnull %1, ptr noundef nonnull @module_registry, ptr noundef null) #29
  call void @zend_hash_sort_ex(ptr noundef nonnull %1, ptr noundef nonnull @zend_sort, ptr noundef nonnull @module_name_cmp, i1 noundef zeroext false) #29
  %2 = getelementptr inbounds nuw i8, ptr %1, i64 16
  %3 = load ptr, ptr %2, align 8, !tbaa !4
  %4 = getelementptr inbounds nuw i8, ptr %1, i64 24
  %5 = load i32, ptr %4, align 8, !tbaa !145
  %6 = zext i32 %5 to i64
  %7 = getelementptr inbounds nuw %struct._Bucket, ptr %3, i64 %6
  %8 = getelementptr inbounds nuw i8, ptr %1, i64 8
  %9 = load i32, ptr %8, align 8, !tbaa !4
  %10 = and i32 %9, 4
  %.not = icmp eq i32 %10, 0
  call void @llvm.assume(i1 %.not)
  %.not1112 = icmp eq i32 %5, 0
  br i1 %.not1112, label %._crit_edge, label %.lr.ph

.lr.ph:                                           ; preds = %0, %19
  %.013 = phi ptr [ %20, %19 ], [ %3, %0 ]
  %11 = getelementptr inbounds nuw i8, ptr %.013, i64 8
  %12 = load i8, ptr %11, align 8, !tbaa !4
  %13 = icmp eq i8 %12, 0
  br i1 %13, label %19, label %14, !prof !64

14:                                               ; preds = %.lr.ph
  %15 = load ptr, ptr %.013, align 8, !tbaa !4
  %16 = getelementptr inbounds nuw i8, ptr %15, i64 32
  %17 = load ptr, ptr %16, align 8, !tbaa !146
  %18 = call i64 (ptr, ...) @php_printf(ptr noundef nonnull @.str.117, ptr noundef %17) #29
  br label %19

19:                                               ; preds = %.lr.ph, %14
  %20 = getelementptr inbounds nuw i8, ptr %.013, i64 32
  %.not11 = icmp eq ptr %20, %7
  br i1 %.not11, label %._crit_edge, label %.lr.ph

._crit_edge:                                      ; preds = %19, %0
  call void @zend_hash_destroy(ptr noundef nonnull %1) #29
  call void @llvm.lifetime.end.p0(i64 56, ptr nonnull %1) #29
  ret void
}